target datalayout = "e-m:e-p270:32:32-p271:32:32-p272:64:64-i64:64-i128:128-f80:128-n8:16:32:64-S128"
target triple = "x86_64-pc-linux-gnu"

%"class.icu_77::number::impl::CompactData" = type <{ %"class.icu_77::number::impl::MultiplierProducer", [168 x ptr], [21 x i8], i8, i8, i8 }>
%"class.icu_77::number::impl::MultiplierProducer" = type { ptr }
%"class.icu_77::UObject" = type { ptr }
%"class.icu_77::UnicodeString" = type { %"class.icu_77::Replaceable", %"union.icu_77::UnicodeString::StackBufferOrFields" }
%"class.icu_77::Replaceable" = type { %"class.icu_77::UObject" }
%"union.icu_77::UnicodeString::StackBufferOrFields" = type { %struct.anon.2, [32 x i8] }
%struct.anon.2 = type { i16, i32, i32, ptr }

@_ZN12_GLOBAL__N_112USE_FALLBACKE = internal global ptr @.str.7, align 8

; Function Attrs: mustprogress uwtable
define linkonce_odr noundef i32 @_ZN6icu_7714StandardPlural27indexOrOtherIndexFromStringERKNS_13UnicodeStringE(ptr noundef nonnull align 8 dereferenceable(64) %0) #1 comdat align 2 {
  %2 = alloca ptr, align 8
  %3 = alloca i32, align 4
  store ptr %0, ptr %2, align 8, !tbaa !135
  call void @llvm.lifetime.start.p0(i64 4, ptr %3) #14
  %4 = load ptr, ptr %2, align 8, !tbaa !135
  %5 = call noundef i32 @_ZN6icu_7714StandardPlural25indexOrNegativeFromStringERKNS_13UnicodeStringE(ptr noundef nonnull align 8 dereferenceable(64) %4)
  store i32 %5, ptr %3, align 4, !tbaa !14
  %6 = load i32, ptr %3, align 4, !tbaa !14
  %7 = icmp sge i32 %6, 0
  br i1 %7, label %8, label %10

8:                                                ; preds = %1
  %9 = load i32, ptr %3, align 4, !tbaa !14
  br label %11

10:                                               ; preds = %1
  br label %11

11:                                               ; preds = %10, %8
  %12 = phi i32 [ %9, %8 ], [ 5, %10 ]
  call void @llvm.lifetime.end.p0(i64 4, ptr %3) #14
  ret i32 %12
}

; Function Attrs: mustprogress uwtable
define linkonce_odr noundef i32 @_ZN6icu_7714StandardPlural17orOtherFromStringERKNS_13UnicodeStringE(ptr noundef nonnull align 8 dereferenceable(64) %0) #1 comdat align 2 {
  %2 = alloca ptr, align 8
  store ptr %0, ptr %2, align 8, !tbaa !135
  %3 = load ptr, ptr %2, align 8, !tbaa !135
  %4 = call noundef i32 @_ZN6icu_7714StandardPlural27indexOrOtherIndexFromStringERKNS_13UnicodeStringE(ptr noundef nonnull align 8 dereferenceable(64) %3)
  ret i32 %4
}

; Function Attrs: inlinehint mustprogress uwtable
define linkonce_odr noundef i32 @_ZN6icu_776number4impl5utils17getStandardPluralEPKNS_11PluralRulesERKNS_13IFixedDecimalE(ptr noundef %0, ptr noundef nonnull align 8 dereferenceable(8) %1) #3 comdat personality ptr @__gxx_personality_v0 {
  %3 = alloca i32, align 4
  %4 = alloca ptr, align 8
  %5 = alloca ptr, align 8
  %6 = alloca %"class.icu_77::UnicodeString", align 8
  %7 = alloca ptr, align 8
  %8 = alloca i32, align 4
  store ptr %0, ptr %4, align 8, !tbaa !61
  store ptr %1, ptr %5, align 8, !tbaa !69
  %9 = load ptr, ptr %4, align 8, !tbaa !61
  %10 = icmp eq ptr %9, null
  br i1 %10, label %11, label %12

11:                                               ; preds = %2
  store i32 5, ptr %3, align 4
  br label %21

12:                                               ; preds = %2
  call void @llvm.lifetime.start.p0(i64 64, ptr %6) #14
  %13 = load ptr, ptr %4, align 8, !tbaa !61
  %14 = load ptr, ptr %5, align 8, !tbaa !69
  call void @_ZNK6icu_7711PluralRules6selectERKNS_13IFixedDecimalE(ptr dead_on_unwind writable sret(%"class.icu_77::UnicodeString") align 8 %6, ptr noundef nonnull align 8 dereferenceable(28) %13, ptr noundef nonnull align 8 dereferenceable(8) %14)
  %15 = invoke noundef i32 @_ZN6icu_7714StandardPlural17orOtherFromStringERKNS_13UnicodeStringE(ptr noundef nonnull align 8 dereferenceable(64) %6)
          to label %16 unwind label %17

16:                                               ; preds = %12
  store i32 %15, ptr %3, align 4
  call void @_ZN6icu_7713UnicodeStringD1Ev(ptr noundef nonnull align 8 dereferenceable(64) %6) #14
  call void @llvm.lifetime.end.p0(i64 64, ptr %6) #14
  br label %21

17:                                               ; preds = %12
  %18 = landingpad { ptr, i32 }
          cleanup
  %19 = extractvalue { ptr, i32 } %18, 0
  store ptr %19, ptr %7, align 8
  %20 = extractvalue { ptr, i32 } %18, 1
  store i32 %20, ptr %8, align 4
  call void @_ZN6icu_7713UnicodeStringD1Ev(ptr noundef nonnull align 8 dereferenceable(64) %6) #14
  call void @llvm.lifetime.end.p0(i64 64, ptr %6) #14
  br label %23

21:                                               ; preds = %16, %11
  %22 = load i32, ptr %3, align 4
  ret i32 %22

23:                                               ; preds = %17
  %24 = load ptr, ptr %7, align 8
  %25 = load i32, ptr %8, align 4
  %26 = insertvalue { ptr, i32 } poison, ptr %24, 0
  %27 = insertvalue { ptr, i32 } %26, i32 %25, 1
  resume { ptr, i32 } %27
}

; Function Attrs: mustprogress nounwind uwtable
define internal noundef i32 @_ZN12_GLOBAL__N_18getIndexEiN6icu_7714StandardPlural4FormE(i32 noundef %0, i32 noundef %1) #0 {
  %3 = alloca i32, align 4
  %4 = alloca i32, align 4
  store i32 %0, ptr %3, align 4, !tbaa !14
  store i32 %1, ptr %4, align 4, !tbaa !67
  %5 = load i32, ptr %3, align 4, !tbaa !14
  %6 = mul nsw i32 %5, 8
  %7 = load i32, ptr %4, align 4, !tbaa !67
  %8 = add nsw i32 %6, %7
  ret i32 %8
}

; Function Attrs: mustprogress uwtable
define noundef ptr @_ZNK6icu_776number4impl11CompactData10getPatternEiPKNS_11PluralRulesERKNS1_15DecimalQuantityE(ptr noundef nonnull align 8 dereferenceable(1375) %0, i32 noundef %1, ptr noundef %2, ptr noundef nonnull align 8 dereferenceable(66) %3) #1 align 2 {
  %5 = alloca ptr, align 8
  %6 = alloca ptr, align 8
  %7 = alloca i32, align 4
  %8 = alloca ptr, align 8
  %9 = alloca ptr, align 8
  %10 = alloca ptr, align 8
  %11 = alloca i64, align 8
  %12 = alloca i32, align 4
  %13 = alloca i32, align 4
  store ptr %0, ptr %6, align 8, !tbaa !23
  store i32 %1, ptr %7, align 4, !tbaa !14
  store ptr %2, ptr %8, align 8, !tbaa !61
  store ptr %3, ptr %9, align 8, !tbaa !63
  %14 = load ptr, ptr %6, align 8
  %15 = load i32, ptr %7, align 4, !tbaa !14
  %16 = icmp slt i32 %15, 0
  br i1 %16, label %17, label %18

17:                                               ; preds = %4
  store ptr null, ptr %5, align 8
  br label %97

18:                                               ; preds = %4
  %19 = load i32, ptr %7, align 4, !tbaa !14
  %20 = getelementptr inbounds nuw %"class.icu_77::number::impl::CompactData", ptr %14, i32 0, i32 3
  %21 = load i8, ptr %20, align 1, !tbaa !27
  %22 = sext i8 %21 to i32
  %23 = icmp sgt i32 %19, %22
  br i1 %23, label %24, label %28

24:                                               ; preds = %18
  %25 = getelementptr inbounds nuw %"class.icu_77::number::impl::CompactData", ptr %14, i32 0, i32 3
  %26 = load i8, ptr %25, align 1, !tbaa !27
  %27 = sext i8 %26 to i32
  store i32 %27, ptr %7, align 4, !tbaa !14
  br label %28

28:                                               ; preds = %24, %18
  call void @llvm.lifetime.start.p0(i64 8, ptr %10) #14
  store ptr null, ptr %10, align 8, !tbaa !65
  %29 = load ptr, ptr %9, align 8, !tbaa !63
  %30 = load ptr, ptr %29, align 8, !tbaa !25
  %31 = getelementptr inbounds ptr, ptr %30, i64 5
  %32 = load ptr, ptr %31, align 8
  %33 = call noundef zeroext i1 %32(ptr noundef nonnull align 8 dereferenceable(66) %29)
  br i1 %33, label %34, label %66

34:                                               ; preds = %28
  call void @llvm.lifetime.start.p0(i64 8, ptr %11) #14
  %35 = load ptr, ptr %9, align 8, !tbaa !63
  %36 = call noundef i64 @_ZNK6icu_776number4impl15DecimalQuantity6toLongEb(ptr noundef nonnull align 8 dereferenceable(66) %35, i1 noundef zeroext true)
  store i64 %36, ptr %11, align 8, !tbaa !18
  %37 = load i64, ptr %11, align 8, !tbaa !18
  %38 = icmp eq i64 %37, 0
  br i1 %38, label %39, label %46

39:                                               ; preds = %34
  %40 = getelementptr inbounds nuw %"class.icu_77::number::impl::CompactData", ptr %14, i32 0, i32 1
  %41 = load i32, ptr %7, align 4, !tbaa !14
  %42 = call noundef i32 @_ZN12_GLOBAL__N_18getIndexEiN6icu_7714StandardPlural4FormE(i32 noundef %41, i32 noundef 6)
  %43 = sext i32 %42 to i64
  %44 = getelementptr inbounds [168 x ptr], ptr %40, i64 0, i64 %43
  %45 = load ptr, ptr %44, align 8, !tbaa !65
  store ptr %45, ptr %10, align 8, !tbaa !65
  br label %57

46:                                               ; preds = %34
  %47 = load i64, ptr %11, align 8, !tbaa !18
  %48 = icmp eq i64 %47, 1
  br i1 %48, label %49, label %56

49:                                               ; preds = %46
  %50 = getelementptr inbounds nuw %"class.icu_77::number::impl::CompactData", ptr %14, i32 0, i32 1
  %51 = load i32, ptr %7, align 4, !tbaa !14
  %52 = call noundef i32 @_ZN12_GLOBAL__N_18getIndexEiN6icu_7714StandardPlural4FormE(i32 noundef %51, i32 noundef 7)
  %53 = sext i32 %52 to i64
  %54 = getelementptr inbounds [168 x ptr], ptr %50, i64 0, i64 %53
  %55 = load ptr, ptr %54, align 8, !tbaa !65
  store ptr %55, ptr %10, align 8, !tbaa !65
  br label %56

56:                                               ; preds = %49, %46
  br label %57

57:                                               ; preds = %56, %39
  %58 = load ptr, ptr %10, align 8, !tbaa !65
  %59 = icmp ne ptr %58, null
  br i1 %59, label %60, label %62

60:                                               ; preds = %57
  %61 = load ptr, ptr %10, align 8, !tbaa !65
  store ptr %61, ptr %5, align 8
  store i32 1, ptr %12, align 4
  br label %63

62:                                               ; preds = %57
  store i32 0, ptr %12, align 4
  br label %63

63:                                               ; preds = %62, %60
  call void @llvm.lifetime.end.p0(i64 8, ptr %11) #14
  %64 = load i32, ptr %12, align 4
  switch i32 %64, label %96 [
    i32 0, label %65
  ]

65:                                               ; preds = %63
  br label %66

66:                                               ; preds = %65, %28
  call void @llvm.lifetime.start.p0(i64 4, ptr %13) #14
  %67 = load ptr, ptr %8, align 8, !tbaa !61
  %68 = load ptr, ptr %9, align 8, !tbaa !63
  %69 = call noundef i32 @_ZN6icu_776number4impl5utils17getStandardPluralEPKNS_11PluralRulesERKNS_13IFixedDecimalE(ptr noundef %67, ptr noundef nonnull align 8 dereferenceable(8) %68)
  store i32 %69, ptr %13, align 4, !tbaa !67
  %70 = getelementptr inbounds nuw %"class.icu_77::number::impl::CompactData", ptr %14, i32 0, i32 1
  %71 = load i32, ptr %7, align 4, !tbaa !14
  %72 = load i32, ptr %13, align 4, !tbaa !67
  %73 = call noundef i32 @_ZN12_GLOBAL__N_18getIndexEiN6icu_7714StandardPlural4FormE(i32 noundef %71, i32 noundef %72)
  %74 = sext i32 %73 to i64
  %75 = getelementptr inbounds [168 x ptr], ptr %70, i64 0, i64 %74
  %76 = load ptr, ptr %75, align 8, !tbaa !65
  store ptr %76, ptr %10, align 8, !tbaa !65
  %77 = load ptr, ptr %10, align 8, !tbaa !65
  %78 = icmp eq ptr %77, null
  br i1 %78, label %79, label %89

79:                                               ; preds = %66
  %80 = load i32, ptr %13, align 4, !tbaa !67
  %81 = icmp ne i32 %80, 5
  br i1 %81, label %82, label %89

82:                                               ; preds = %79
  %83 = getelementptr inbounds nuw %"class.icu_77::number::impl::CompactData", ptr %14, i32 0, i32 1
  %84 = load i32, ptr %7, align 4, !tbaa !14
  %85 = call noundef i32 @_ZN12_GLOBAL__N_18getIndexEiN6icu_7714StandardPlural4FormE(i32 noundef %84, i32 noundef 5)
  %86 = sext i32 %85 to i64
  %87 = getelementptr inbounds [168 x ptr], ptr %83, i64 0, i64 %86
  %88 = load ptr, ptr %87, align 8, !tbaa !65
  store ptr %88, ptr %10, align 8, !tbaa !65
  br label %89

89:                                               ; preds = %82, %79, %66
  %90 = load ptr, ptr %10, align 8, !tbaa !65
  %91 = load ptr, ptr @_ZN12_GLOBAL__N_112USE_FALLBACKE, align 8, !tbaa !65
  %92 = icmp eq ptr %90, %91
  br i1 %92, label %93, label %94

93:                                               ; preds = %89
  store ptr null, ptr %10, align 8, !tbaa !65
  br label %94

94:                                               ; preds = %93, %89
  %95 = load ptr, ptr %10, align 8, !tbaa !65
  store ptr %95, ptr %5, align 8
  store i32 1, ptr %12, align 4
  call void @llvm.lifetime.end.p0(i64 4, ptr %13) #14
  br label %96

96:                                               ; preds = %94, %63
  call void @llvm.lifetime.end.p0(i64 8, ptr %10) #14
  br label %97

97:                                               ; preds = %96, %17
  %98 = load ptr, ptr %5, align 8
  ret ptr %98
}