; Function Attrs: mustprogress uwtable
define noundef ptr @_ZNK6icu_776number4impl11CompactData10getPatternEiPKNS_11PluralRulesERKNS1_15DecimalQuantityE(ptr noundef nonnull readonly align 8 captures(none) dereferenceable(1375) %0, i32 noundef %1, ptr noundef %2, ptr noundef nonnull align 8 dereferenceable(66) %3) local_unnamed_addr #1 align 2 personality ptr @__gxx_personality_v0 {
  %5 = alloca %"class.icu_77::UnicodeString", align 8
  %6 = icmp slt i32 %1, 0
  br i1 %6, label %47, label %7

7:                                                ; preds = %4
  %8 = getelementptr inbounds nuw i8, ptr %0, i64 1373
  %9 = load i8, ptr %8, align 1, !tbaa !31
  %10 = sext i8 %9 to i32
  %spec.select = tail call i32 @llvm.smin.i32(i32 %1, i32 %10)
  %11 = load ptr, ptr %3, align 8, !tbaa !15
  %12 = getelementptr inbounds nuw i8, ptr %11, i64 40
  %13 = load ptr, ptr %12, align 8
  %14 = tail call noundef zeroext i1 %13(ptr noundef nonnull align 8 dereferenceable(66) %3)
  br i1 %14, label %15, label %.thread

15:                                               ; preds = %7
  %16 = tail call noundef i64 @_ZNK6icu_776number4impl15DecimalQuantity6toLongEb(ptr noundef nonnull align 8 dereferenceable(66) %3, i1 noundef zeroext true)
  switch i64 %16, label %.thread [
    i64 0, label %18
    i64 1, label %17
  ]

17:                                               ; preds = %15
  br label %18

18:                                               ; preds = %15, %17
  %.sink34 = phi i32 [ 7, %17 ], [ 6, %15 ]
  %19 = getelementptr inbounds nuw i8, ptr %0, i64 8
  %20 = shl nsw i32 %spec.select, 3
  %21 = or disjoint i32 %20, %.sink34
  %22 = sext i32 %21 to i64
  %23 = getelementptr inbounds [168 x ptr], ptr %19, i64 0, i64 %22
  %.024 = load ptr, ptr %23, align 8, !tbaa !32
  %.not = icmp eq ptr %.024, null
  br i1 %.not, label %.thread, label %47

.thread:                                          ; preds = %15, %18, %7
  %24 = icmp eq ptr %2, null
  br i1 %24, label %_ZN6icu_776number4impl5utils17getStandardPluralEPKNS_11PluralRulesERKNS_13IFixedDecimalE.exit, label %25

25:                                               ; preds = %.thread
  call void @llvm.lifetime.start.p0(i64 64, ptr nonnull %5) #17
  call void @_ZNK6icu_7711PluralRules6selectERKNS_13IFixedDecimalE(ptr dead_on_unwind nonnull writable sret(%"class.icu_77::UnicodeString") align 8 %5, ptr noundef nonnull align 8 dereferenceable(28) %2, ptr noundef nonnull align 8 dereferenceable(8) %3)
  %26 = invoke noundef i32 @_ZN6icu_7714StandardPlural25indexOrNegativeFromStringERKNS_13UnicodeStringE(ptr noundef nonnull align 8 dereferenceable(64) %5)
          to label %27 unwind label %30

27:                                               ; preds = %25
  %28 = icmp sgt i32 %26, -1
  %29 = select i1 %28, i32 %26, i32 5
  call void @_ZN6icu_7713UnicodeStringD1Ev(ptr noundef nonnull align 8 dereferenceable(64) %5) #17
  call void @llvm.lifetime.end.p0(i64 64, ptr nonnull %5) #17
  br label %_ZN6icu_776number4impl5utils17getStandardPluralEPKNS_11PluralRulesERKNS_13IFixedDecimalE.exit

30:                                               ; preds = %25
  %31 = landingpad { ptr, i32 }
          cleanup
  call void @_ZN6icu_7713UnicodeStringD1Ev(ptr noundef nonnull align 8 dereferenceable(64) %5) #17
  call void @llvm.lifetime.end.p0(i64 64, ptr nonnull %5) #17
  resume { ptr, i32 } %31

_ZN6icu_776number4impl5utils17getStandardPluralEPKNS_11PluralRulesERKNS_13IFixedDecimalE.exit: ; preds = %.thread, %27
  %.0.i = phi i32 [ %29, %27 ], [ 5, %.thread ]
  %32 = getelementptr inbounds nuw i8, ptr %0, i64 8
  %33 = shl nsw i32 %spec.select, 3
  %34 = add nsw i32 %.0.i, %33
  %35 = sext i32 %34 to i64
  %36 = getelementptr inbounds [168 x ptr], ptr %32, i64 0, i64 %35
  %37 = load ptr, ptr %36, align 8, !tbaa !32
  %38 = icmp eq ptr %37, null
  %39 = icmp ne i32 %.0.i, 5
  %or.cond = and i1 %39, %38
  br i1 %or.cond, label %40, label %45

40:                                               ; preds = %_ZN6icu_776number4impl5utils17getStandardPluralEPKNS_11PluralRulesERKNS_13IFixedDecimalE.exit
  %41 = or disjoint i32 %33, 5
  %42 = sext i32 %41 to i64
  %43 = getelementptr inbounds [168 x ptr], ptr %32, i64 0, i64 %42
  %44 = load ptr, ptr %43, align 8, !tbaa !32
  br label %45

45:                                               ; preds = %40, %_ZN6icu_776number4impl5utils17getStandardPluralEPKNS_11PluralRulesERKNS_13IFixedDecimalE.exit
  %.125 = phi ptr [ %44, %40 ], [ %37, %_ZN6icu_776number4impl5utils17getStandardPluralEPKNS_11PluralRulesERKNS_13IFixedDecimalE.exit ]
  %46 = icmp eq ptr %.125, @.str.7
  %spec.store.select = select i1 %46, ptr null, ptr %.125
  br label %47

47:                                               ; preds = %45, %18, %4
  %.0 = phi ptr [ null, %4 ], [ %spec.store.select, %45 ], [ %.024, %18 ]
  ret ptr %.0
}